target datalayout = "e-m:e-p270:32:32-p271:32:32-p272:64:64-i64:64-i128:128-f80:128-n8:16:32:64-S128"
target triple = "x86_64-pc-linux-gnu"

%"struct.std::to_chars_result" = type { ptr, i32 }

; Function Attrs: alwaysinline mustprogress nounwind willreturn memory(none) uwtable
define linkonce_odr noundef zeroext i16 @_ZN4toml2v3anENS0_11value_flagsES1_(i16 noundef zeroext %0, i16 noundef zeroext %1) #23 comdat {
  %3 = alloca i16, align 2
  %4 = alloca i16, align 2
  store i16 %0, ptr %3, align 2, !tbaa !23
  store i16 %1, ptr %4, align 2, !tbaa !23
  %5 = load i16, ptr %3, align 2, !tbaa !23
  %6 = zext i16 %5 to i32
  %7 = load i16, ptr %4, align 2, !tbaa !23
  %8 = zext i16 %7 to i32
  %9 = and i32 %6, %8
  %10 = trunc i32 %9 to i16
  ret i16 %10
}

; Function Attrs: mustprogress uwtable
define void @_ZN4toml2v34impl15print_to_streamERSoPKcm(ptr noundef nonnull align 8 dereferenceable(8) %0, ptr noundef nonnull %1, i64 noundef %2) #0 {
  %4 = alloca ptr, align 8
  %5 = alloca ptr, align 8
  %6 = alloca i64, align 8
  store ptr %0, ptr %4, align 8, !tbaa !3
  store ptr %1, ptr %5, align 8, !tbaa !8
  store i64 %2, ptr %6, align 8, !tbaa !10
  %7 = load ptr, ptr %4, align 8, !tbaa !3
  %8 = load ptr, ptr %5, align 8, !tbaa !8
  %9 = load i64, ptr %6, align 8, !tbaa !10
  %10 = call noundef nonnull align 8 dereferenceable(8) ptr @_ZNSo5writeEPKcl(ptr noundef nonnull align 8 dereferenceable(8) %7, ptr noundef %8, i64 noundef %9)
  ret void
}

; Function Attrs: inlinehint mustprogress uwtable
define linkonce_odr { ptr, i32 } @_ZSt8to_charsPcS_li(ptr noundef %0, ptr noundef %1, i64 noundef %2, i32 noundef %3) #12 comdat {
  %5 = alloca %"struct.std::to_chars_result", align 8
  %6 = alloca ptr, align 8
  %7 = alloca ptr, align 8
  %8 = alloca i64, align 8
  %9 = alloca i32, align 4
  store ptr %0, ptr %6, align 8, !tbaa !8
  store ptr %1, ptr %7, align 8, !tbaa !8
  store i64 %2, ptr %8, align 8, !tbaa !10
  store i32 %3, ptr %9, align 4, !tbaa !27
  %10 = load ptr, ptr %6, align 8, !tbaa !8
  %11 = load ptr, ptr %7, align 8, !tbaa !8
  %12 = load i64, ptr %8, align 8, !tbaa !10
  %13 = load i32, ptr %9, align 4, !tbaa !27
  %14 = call { ptr, i32 } @_ZSt12__to_chars_iIlENSt9enable_ifIXsr5__or_ISt5__or_IJSt7is_sameINSt9remove_cvIT_E4typeEaES2_IS6_sES2_IS6_iES2_IS6_lES2_IS6_xES2_IS6_nEEES1_IJS2_IS6_hES2_IS6_tES2_IS6_jES2_IS6_mES2_IS6_yES2_IS6_oEEES2_IcS6_EEE5valueESt15to_chars_resultE4typeEPcSP_S4_i(ptr noundef %10, ptr noundef %11, i64 noundef %12, i32 noundef %13)
  %15 = getelementptr inbounds nuw { ptr, i32 }, ptr %5, i32 0, i32 0
  %16 = extractvalue { ptr, i32 } %14, 0
  store ptr %16, ptr %15, align 8
  %17 = getelementptr inbounds nuw { ptr, i32 }, ptr %5, i32 0, i32 1
  %18 = extractvalue { ptr, i32 } %14, 1
  store i32 %18, ptr %17, align 8
  %19 = load { ptr, i32 }, ptr %5, align 8
  ret { ptr, i32 } %19
}

; Function Attrs: mustprogress nounwind uwtable
define linkonce_odr noundef nonnull align 2 dereferenceable(2) ptr @_ZN4toml2v3aNERNS0_11value_flagsES1_(ptr noundef nonnull align 2 dereferenceable(2) %0, i16 noundef zeroext %1) #2 comdat {
  %3 = alloca ptr, align 8
  %4 = alloca i16, align 2
  store ptr %0, ptr %3, align 8, !tbaa !159
  store i16 %1, ptr %4, align 2, !tbaa !23
  %5 = load ptr, ptr %3, align 8, !tbaa !159
  %6 = load i16, ptr %5, align 2, !tbaa !23
  %7 = load i16, ptr %4, align 2, !tbaa !23
  %8 = call noundef zeroext i16 @_ZN4toml2v3anENS0_11value_flagsES1_(i16 noundef zeroext %6, i16 noundef zeroext %7) #38
  %9 = load ptr, ptr %3, align 8, !tbaa !159
  store i16 %8, ptr %9, align 2, !tbaa !23
  ret ptr %9
}

; Function Attrs: mustprogress uwtable
define internal void @_ZN12_GLOBAL__N_123print_integer_to_streamIlEEvRSoT_N4toml2v311value_flagsEm(ptr noundef nonnull align 8 dereferenceable(8) %0, i64 noundef %1, i16 noundef zeroext %2, i64 noundef %3) #0 {
  %5 = alloca ptr, align 8
  %6 = alloca i64, align 8
  %7 = alloca i16, align 2
  %8 = alloca i64, align 8
  %9 = alloca i64, align 8
  %10 = alloca i32, align 4
  %11 = alloca [64 x i8], align 16
  %12 = alloca %"struct.std::to_chars_result", align 8
  %13 = alloca i64, align 8
  %14 = alloca i64, align 8
  %15 = alloca i64, align 8
  store ptr %0, ptr %5, align 8, !tbaa !3
  store i64 %1, ptr %6, align 8, !tbaa !10
  store i16 %2, ptr %7, align 2, !tbaa !23
  store i64 %3, ptr %8, align 8, !tbaa !10
  %16 = load i64, ptr %6, align 8, !tbaa !10
  %17 = icmp ne i64 %16, 0
  br i1 %17, label %35, label %18

18:                                               ; preds = %4
  %19 = load i64, ptr %8, align 8, !tbaa !10
  %20 = icmp ne i64 %19, 0
  br i1 %20, label %22, label %21

21:                                               ; preds = %18
  store i64 1, ptr %8, align 8, !tbaa !10
  br label %22

22:                                               ; preds = %21, %18
  call void @llvm.lifetime.start.p0(i64 8, ptr %9) #36
  store i64 0, ptr %9, align 8, !tbaa !10
  br label %23

23:                                               ; preds = %31, %22
  %24 = load i64, ptr %9, align 8, !tbaa !10
  %25 = load i64, ptr %8, align 8, !tbaa !10
  %26 = icmp ult i64 %24, %25
  br i1 %26, label %28, label %27

27:                                               ; preds = %23
  call void @llvm.lifetime.end.p0(i64 8, ptr %9) #36
  br label %34

28:                                               ; preds = %23
  %29 = load ptr, ptr %5, align 8, !tbaa !3
  %30 = call noundef nonnull align 8 dereferenceable(8) ptr @_ZNSo3putEc(ptr noundef nonnull align 8 dereferenceable(8) %29, i8 noundef signext 48)
  br label %31

31:                                               ; preds = %28
  %32 = load i64, ptr %9, align 8, !tbaa !10
  %33 = add i64 %32, 1
  store i64 %33, ptr %9, align 8, !tbaa !10
  br label %23, !llvm.loop !42

34:                                               ; preds = %27
  br label %109

35:                                               ; preds = %4
  %36 = call noundef nonnull align 2 dereferenceable(2) ptr @_ZN4toml2v3aNERNS0_11value_flagsES1_(ptr noundef nonnull align 2 dereferenceable(2) %7, i16 noundef zeroext 3) #36
  call void @llvm.lifetime.start.p0(i64 4, ptr %10) #36
  store i32 10, ptr %10, align 4, !tbaa !27
  %37 = load i16, ptr %7, align 2, !tbaa !23
  %38 = icmp ne i16 %37, 0
  br i1 %38, label %39, label %49

39:                                               ; preds = %35
  %40 = load i64, ptr %6, align 8, !tbaa !10
  %41 = icmp sgt i64 %40, 0
  br i1 %41, label %42, label %49

42:                                               ; preds = %39
  %43 = load i16, ptr %7, align 2, !tbaa !23
  switch i16 %43, label %47 [
    i16 1, label %44
    i16 2, label %45
    i16 3, label %46
  ]

44:                                               ; preds = %42
  store i32 2, ptr %10, align 4, !tbaa !27
  br label %48

45:                                               ; preds = %42
  store i32 8, ptr %10, align 4, !tbaa !27
  br label %48

46:                                               ; preds = %42
  store i32 16, ptr %10, align 4, !tbaa !27
  br label %48

47:                                               ; preds = %42
  br label %48

48:                                               ; preds = %47, %46, %45, %44
  br label %49

49:                                               ; preds = %48, %39, %35
  call void @llvm.lifetime.start.p0(i64 64, ptr %11) #36
  call void @llvm.lifetime.start.p0(i64 16, ptr %12) #36
  %50 = getelementptr inbounds [64 x i8], ptr %11, i64 0, i64 0
  %51 = getelementptr inbounds [64 x i8], ptr %11, i64 0, i64 0
  %52 = getelementptr inbounds nuw i8, ptr %51, i64 64
  %53 = load i64, ptr %6, align 8, !tbaa !10
  %54 = load i32, ptr %10, align 4, !tbaa !27
  %55 = call { ptr, i32 } @_ZSt8to_charsPcS_li(ptr noundef %50, ptr noundef %52, i64 noundef %53, i32 noundef %54)
  %56 = getelementptr inbounds nuw { ptr, i32 }, ptr %12, i32 0, i32 0
  %57 = extractvalue { ptr, i32 } %55, 0
  store ptr %57, ptr %56, align 8
  %58 = getelementptr inbounds nuw { ptr, i32 }, ptr %12, i32 0, i32 1
  %59 = extractvalue { ptr, i32 } %55, 1
  store i32 %59, ptr %58, align 8
  call void @llvm.lifetime.start.p0(i64 8, ptr %13) #36
  %60 = getelementptr inbounds nuw %"struct.std::to_chars_result", ptr %12, i32 0, i32 0
  %61 = load ptr, ptr %60, align 8, !tbaa !29
  %62 = getelementptr inbounds [64 x i8], ptr %11, i64 0, i64 0
  %63 = ptrtoint ptr %61 to i64
  %64 = ptrtoint ptr %62 to i64
  %65 = sub i64 %63, %64
  store i64 %65, ptr %13, align 8, !tbaa !10
  call void @llvm.lifetime.start.p0(i64 8, ptr %14) #36
  %66 = load i64, ptr %13, align 8, !tbaa !10
  store i64 %66, ptr %14, align 8, !tbaa !10
  br label %67

67:                                               ; preds = %75, %49
  %68 = load i64, ptr %14, align 8, !tbaa !10
  %69 = load i64, ptr %8, align 8, !tbaa !10
  %70 = icmp ult i64 %68, %69
  br i1 %70, label %72, label %71

71:                                               ; preds = %67
  call void @llvm.lifetime.end.p0(i64 8, ptr %14) #36
  br label %78

72:                                               ; preds = %67
  %73 = load ptr, ptr %5, align 8, !tbaa !3
  %74 = call noundef nonnull align 8 dereferenceable(8) ptr @_ZNSo3putEc(ptr noundef nonnull align 8 dereferenceable(8) %73, i8 noundef signext 48)
  br label %75

75:                                               ; preds = %72
  %76 = load i64, ptr %14, align 8, !tbaa !10
  %77 = add i64 %76, 1
  store i64 %77, ptr %14, align 8, !tbaa !10
  br label %67, !llvm.loop !43

78:                                               ; preds = %71
  %79 = load i32, ptr %10, align 4, !tbaa !27
  %80 = icmp eq i32 %79, 16
  br i1 %80, label %81, label %105

81:                                               ; preds = %78
  call void @llvm.lifetime.start.p0(i64 8, ptr %15) #36
  store i64 0, ptr %15, align 8, !tbaa !10
  br label %82

82:                                               ; preds = %101, %81
  %83 = load i64, ptr %15, align 8, !tbaa !10
  %84 = load i64, ptr %13, align 8, !tbaa !10
  %85 = icmp ult i64 %83, %84
  br i1 %85, label %87, label %86

86:                                               ; preds = %82
  call void @llvm.lifetime.end.p0(i64 8, ptr %15) #36
  br label %104

87:                                               ; preds = %82
  %88 = load i64, ptr %15, align 8, !tbaa !10
  %89 = getelementptr inbounds nuw [64 x i8], ptr %11, i64 0, i64 %88
  %90 = load i8, ptr %89, align 1, !tbaa !22
  %91 = sext i8 %90 to i32
  %92 = icmp sge i32 %91, 97
  br i1 %92, label %93, label %100

93:                                               ; preds = %87
  %94 = load i64, ptr %15, align 8, !tbaa !10
  %95 = getelementptr inbounds nuw [64 x i8], ptr %11, i64 0, i64 %94
  %96 = load i8, ptr %95, align 1, !tbaa !22
  %97 = sext i8 %96 to i32
  %98 = sub nsw i32 %97, 32
  %99 = trunc i32 %98 to i8
  store i8 %99, ptr %95, align 1, !tbaa !22
  br label %100

100:                                              ; preds = %93, %87
  br label %101

101:                                              ; preds = %100
  %102 = load i64, ptr %15, align 8, !tbaa !10
  %103 = add i64 %102, 1
  store i64 %103, ptr %15, align 8, !tbaa !10
  br label %82, !llvm.loop !44

104:                                              ; preds = %86
  br label %105

105:                                              ; preds = %104, %78
  %106 = load ptr, ptr %5, align 8, !tbaa !3
  %107 = getelementptr inbounds [64 x i8], ptr %11, i64 0, i64 0
  %108 = load i64, ptr %13, align 8, !tbaa !10
  call void @_ZN4toml2v34impl15print_to_streamERSoPKcm(ptr noundef nonnull align 8 dereferenceable(8) %106, ptr noundef %107, i64 noundef %108)
  call void @llvm.lifetime.end.p0(i64 8, ptr %13) #36
  call void @llvm.lifetime.end.p0(i64 16, ptr %12) #36
  call void @llvm.lifetime.end.p0(i64 64, ptr %11) #36
  call void @llvm.lifetime.end.p0(i64 4, ptr %10) #36
  br label %109

109:                                              ; preds = %105, %34
  ret void
}

; Function Attrs: mustprogress uwtable
define void @_ZN4toml2v34impl15print_to_streamERSolNS0_11value_flagsEm(ptr noundef nonnull align 8 dereferenceable(8) %0, i64 noundef %1, i16 noundef zeroext %2, i64 noundef %3) #0 {
  %5 = alloca ptr, align 8
  %6 = alloca i64, align 8
  %7 = alloca i16, align 2
  %8 = alloca i64, align 8
  store ptr %0, ptr %5, align 8, !tbaa !3
  store i64 %1, ptr %6, align 8, !tbaa !10
  store i16 %2, ptr %7, align 2, !tbaa !23
  store i64 %3, ptr %8, align 8, !tbaa !10
  %9 = load ptr, ptr %5, align 8, !tbaa !3
  %10 = load i64, ptr %6, align 8, !tbaa !10
  %11 = load i16, ptr %7, align 2, !tbaa !23
  %12 = load i64, ptr %8, align 8, !tbaa !10
  call void @_ZN12_GLOBAL__N_123print_integer_to_streamIlEEvRSoT_N4toml2v311value_flagsEm(ptr noundef nonnull align 8 dereferenceable(8) %9, i64 noundef %10, i16 noundef zeroext %11, i64 noundef %12)
  ret void
}